#include <math.h>
#include <stdio.h>
#include <stdlib.h>
#include <string.h>

int main(int argc, char* argv[])
{
	int a,b,c;
	scanf("%d%d%d",&a,&b,&c);
	int d[12]={31,28,31,30,31,30,31,31,30,31,30,31};
    if((a%4==0&&a%100!=0)||a%400==0)
	{
		d[1]++;
	}
	int g=c;
	int i=0;
	while(i>=b)
	{
		d[i]++;
	}
	for(i=0;i<b-1;i++)
	{
		g=g+d[i];
	}
    printf("%d",g);
	return 0;
}
