; ModuleID = 'source-C-CXX/10/28.c'
source_filename = "source-C-CXX/10/28.c"
target datalayout = "e-m:e-p270:32:32-p271:32:32-p272:64:64-i64:64-f80:128-n8:16:32:64-S128"
target triple = "x86_64-pc-linux-gnu"

@.str = private unnamed_addr constant [7 x i8] c"%d%d%d\00", align 1
@__const.main.d = private unnamed_addr constant [12 x i32] [i32 31, i32 28, i32 31, i32 30, i32 31, i32 30, i32 31, i32 31, i32 30, i32 31, i32 30, i32 31], align 16
@.str.1 = private unnamed_addr constant [3 x i8] c"%d\00", align 1

; Function Attrs: nofree nounwind sspstrong uwtable
define dso_local i32 @main(i32 %0, i8** nocapture readnone %1) local_unnamed_addr #0 {
  %3 = alloca i32, align 4
  %4 = alloca i32, align 4
  %5 = alloca i32, align 4
  %6 = alloca [12 x i32], align 16
  %7 = bitcast i32* %3 to i8*
  call void @llvm.lifetime.start.p0i8(i64 4, i8* nonnull %7) #5
  %8 = bitcast i32* %4 to i8*
  call void @llvm.lifetime.start.p0i8(i64 4, i8* nonnull %8) #5
  %9 = bitcast i32* %5 to i8*
  call void @llvm.lifetime.start.p0i8(i64 4, i8* nonnull %9) #5
  %10 = call i32 (i8*, ...) @__isoc99_scanf(i8* getelementptr inbounds ([7 x i8], [7 x i8]* @.str, i64 0, i64 0), i32* nonnull %3, i32* nonnull %4, i32* nonnull %5)
  %11 = bitcast [12 x i32]* %6 to i8*
  call void @llvm.lifetime.start.p0i8(i64 48, i8* nonnull %11) #5
  call void @llvm.memcpy.p0i8.p0i8.i64(i8* noundef nonnull align 16 dereferenceable(48) %11, i8* noundef nonnull align 16 dereferenceable(48) bitcast ([12 x i32]* @__const.main.d to i8*), i64 48, i1 false)
  %12 = load i32, i32* %3, align 4, !tbaa !5
  %13 = and i32 %12, 3
  %14 = icmp eq i32 %13, 0
  %15 = srem i32 %12, 100
  %16 = icmp ne i32 %15, 0
  %17 = and i1 %14, %16
  %18 = srem i32 %12, 400
  %19 = icmp eq i32 %18, 0
  %20 = select i1 %17, i1 true, i1 %19
  br i1 %20, label %21, label %23

21:                                               ; preds = %2
  %22 = getelementptr inbounds [12 x i32], [12 x i32]* %6, i64 0, i64 1
  store i32 29, i32* %22, align 4, !tbaa !5
  br label %23

23:                                               ; preds = %2, %21
  %24 = load i32, i32* %5, align 4, !tbaa !5
  %25 = load i32, i32* %4, align 4, !tbaa !5
  %26 = icmp slt i32 %25, 1
  br i1 %26, label %27, label %28, !llvm.loop !9

27:                                               ; preds = %23, %27
  br label %27

28:                                               ; preds = %23
  %29 = icmp eq i32 %25, 1
  br i1 %29, label %127, label %30

30:                                               ; preds = %28
  %31 = add nsw i32 %25, -1
  %32 = zext i32 %31 to i64
  %33 = icmp ult i32 %31, 8
  br i1 %33, label %116, label %34

34:                                               ; preds = %30
  %35 = and i64 %32, 4294967288
  %36 = insertelement <4 x i32> <i32 poison, i32 0, i32 0, i32 0>, i32 %24, i32 0
  %37 = add nsw i64 %35, -8
  %38 = lshr exact i64 %37, 3
  %39 = add nuw nsw i64 %38, 1
  %40 = and i64 %39, 3
  %41 = icmp ult i64 %37, 24
  br i1 %41, label %87, label %42

42:                                               ; preds = %34
  %43 = and i64 %39, 4611686018427387900
  br label %44

44:                                               ; preds = %44, %42
  %45 = phi i64 [ 0, %42 ], [ %84, %44 ]
  %46 = phi <4 x i32> [ %36, %42 ], [ %82, %44 ]
  %47 = phi <4 x i32> [ zeroinitializer, %42 ], [ %83, %44 ]
  %48 = phi i64 [ %43, %42 ], [ %85, %44 ]
  %49 = getelementptr inbounds [12 x i32], [12 x i32]* %6, i64 0, i64 %45
  %50 = bitcast i32* %49 to <4 x i32>*
  %51 = load <4 x i32>, <4 x i32>* %50, align 16, !tbaa !5
  %52 = getelementptr inbounds i32, i32* %49, i64 4
  %53 = bitcast i32* %52 to <4 x i32>*
  %54 = load <4 x i32>, <4 x i32>* %53, align 16, !tbaa !5
  %55 = add <4 x i32> %51, %46
  %56 = add <4 x i32> %54, %47
  %57 = or i64 %45, 8
  %58 = getelementptr inbounds [12 x i32], [12 x i32]* %6, i64 0, i64 %57
  %59 = bitcast i32* %58 to <4 x i32>*
  %60 = load <4 x i32>, <4 x i32>* %59, align 16, !tbaa !5
  %61 = getelementptr inbounds i32, i32* %58, i64 4
  %62 = bitcast i32* %61 to <4 x i32>*
  %63 = load <4 x i32>, <4 x i32>* %62, align 16, !tbaa !5
  %64 = add <4 x i32> %60, %55
  %65 = add <4 x i32> %63, %56
  %66 = or i64 %45, 16
  %67 = getelementptr inbounds [12 x i32], [12 x i32]* %6, i64 0, i64 %66
  %68 = bitcast i32* %67 to <4 x i32>*
  %69 = load <4 x i32>, <4 x i32>* %68, align 16, !tbaa !5
  %70 = getelementptr inbounds i32, i32* %67, i64 4
  %71 = bitcast i32* %70 to <4 x i32>*
  %72 = load <4 x i32>, <4 x i32>* %71, align 16, !tbaa !5
  %73 = add <4 x i32> %69, %64
  %74 = add <4 x i32> %72, %65
  %75 = or i64 %45, 24
  %76 = getelementptr inbounds [12 x i32], [12 x i32]* %6, i64 0, i64 %75
  %77 = bitcast i32* %76 to <4 x i32>*
  %78 = load <4 x i32>, <4 x i32>* %77, align 16, !tbaa !5
  %79 = getelementptr inbounds i32, i32* %76, i64 4
  %80 = bitcast i32* %79 to <4 x i32>*
  %81 = load <4 x i32>, <4 x i32>* %80, align 16, !tbaa !5
  %82 = add <4 x i32> %78, %73
  %83 = add <4 x i32> %81, %74
  %84 = add nuw i64 %45, 32
  %85 = add i64 %48, -4
  %86 = icmp eq i64 %85, 0
  br i1 %86, label %87, label %44, !llvm.loop !11

87:                                               ; preds = %44, %34
  %88 = phi <4 x i32> [ undef, %34 ], [ %82, %44 ]
  %89 = phi <4 x i32> [ undef, %34 ], [ %83, %44 ]
  %90 = phi i64 [ 0, %34 ], [ %84, %44 ]
  %91 = phi <4 x i32> [ %36, %34 ], [ %82, %44 ]
  %92 = phi <4 x i32> [ zeroinitializer, %34 ], [ %83, %44 ]
  %93 = icmp eq i64 %40, 0
  br i1 %93, label %110, label %94

94:                                               ; preds = %87, %94
  %95 = phi i64 [ %107, %94 ], [ %90, %87 ]
  %96 = phi <4 x i32> [ %105, %94 ], [ %91, %87 ]
  %97 = phi <4 x i32> [ %106, %94 ], [ %92, %87 ]
  %98 = phi i64 [ %108, %94 ], [ %40, %87 ]
  %99 = getelementptr inbounds [12 x i32], [12 x i32]* %6, i64 0, i64 %95
  %100 = bitcast i32* %99 to <4 x i32>*
  %101 = load <4 x i32>, <4 x i32>* %100, align 16, !tbaa !5
  %102 = getelementptr inbounds i32, i32* %99, i64 4
  %103 = bitcast i32* %102 to <4 x i32>*
  %104 = load <4 x i32>, <4 x i32>* %103, align 16, !tbaa !5
  %105 = add <4 x i32> %101, %96
  %106 = add <4 x i32> %104, %97
  %107 = add nuw i64 %95, 8
  %108 = add i64 %98, -1
  %109 = icmp eq i64 %108, 0
  br i1 %109, label %110, label %94, !llvm.loop !13

110:                                              ; preds = %94, %87
  %111 = phi <4 x i32> [ %88, %87 ], [ %105, %94 ]
  %112 = phi <4 x i32> [ %89, %87 ], [ %106, %94 ]
  %113 = add <4 x i32> %112, %111
  %114 = call i32 @llvm.vector.reduce.add.v4i32(<4 x i32> %113)
  %115 = icmp eq i64 %35, %32
  br i1 %115, label %127, label %116

116:                                              ; preds = %30, %110
  %117 = phi i64 [ 0, %30 ], [ %35, %110 ]
  %118 = phi i32 [ %24, %30 ], [ %114, %110 ]
  br label %119

119:                                              ; preds = %116, %119
  %120 = phi i64 [ %125, %119 ], [ %117, %116 ]
  %121 = phi i32 [ %124, %119 ], [ %118, %116 ]
  %122 = getelementptr inbounds [12 x i32], [12 x i32]* %6, i64 0, i64 %120
  %123 = load i32, i32* %122, align 4, !tbaa !5
  %124 = add nsw i32 %123, %121
  %125 = add nuw nsw i64 %120, 1
  %126 = icmp eq i64 %125, %32
  br i1 %126, label %127, label %119, !llvm.loop !15

127:                                              ; preds = %119, %110, %28
  %128 = phi i32 [ %24, %28 ], [ %114, %110 ], [ %124, %119 ]
  %129 = call i32 (i8*, ...) @printf(i8* nonnull dereferenceable(1) getelementptr inbounds ([3 x i8], [3 x i8]* @.str.1, i64 0, i64 0), i32 %128)
  call void @llvm.lifetime.end.p0i8(i64 48, i8* nonnull %11) #5
  call void @llvm.lifetime.end.p0i8(i64 4, i8* nonnull %9) #5
  call void @llvm.lifetime.end.p0i8(i64 4, i8* nonnull %8) #5
  call void @llvm.lifetime.end.p0i8(i64 4, i8* nonnull %7) #5
  ret i32 0
}

; Function Attrs: argmemonly mustprogress nofree nosync nounwind willreturn
declare void @llvm.lifetime.start.p0i8(i64 immarg, i8* nocapture) #1

; Function Attrs: nofree nounwind
declare noundef i32 @__isoc99_scanf(i8* nocapture noundef readonly, ...) local_unnamed_addr #2

; Function Attrs: argmemonly mustprogress nofree nounwind willreturn
declare void @llvm.memcpy.p0i8.p0i8.i64(i8* noalias nocapture writeonly, i8* noalias nocapture readonly, i64, i1 immarg) #3

; Function Attrs: nofree nounwind
declare noundef i32 @printf(i8* nocapture noundef readonly, ...) local_unnamed_addr #2

; Function Attrs: argmemonly mustprogress nofree nosync nounwind willreturn
declare void @llvm.lifetime.end.p0i8(i64 immarg, i8* nocapture) #1

; Function Attrs: nofree nosync nounwind readnone willreturn
declare i32 @llvm.vector.reduce.add.v4i32(<4 x i32>) #4


!llvm.module.flags = !{!0, !1, !2, !3}
!llvm.ident = !{!4}

!0 = !{i32 1, !"wchar_size", i32 4}
!1 = !{i32 7, !"PIC Level", i32 2}
!2 = !{i32 7, !"PIE Level", i32 2}
!3 = !{i32 7, !"uwtable", i32 1}
!4 = !{!"clang version 13.0.0"}
!5 = !{!6, !6, i64 0}
!6 = !{!"int", !7, i64 0}
!7 = !{!"omnipotent char", !8, i64 0}
!8 = !{!"Simple C/C++ TBAA"}
!9 = distinct !{!9, !10}
!10 = !{!"llvm.loop.mustprogress"}
!11 = distinct !{!11, !10, !12}
!12 = !{!"llvm.loop.isvectorized", i32 1}
!13 = distinct !{!13, !14}
!14 = !{!"llvm.loop.unroll.disable"}
!15 = distinct !{!15, !10, !16, !12}
!16 = !{!"llvm.loop.unroll.runtime.disable"}
